; Function Attrs: mustprogress uwtable
define noundef zeroext i1 @_ZN32pxrInternal_v0_24__pxrReserved__22UsdSkel_SkelDefinition27GetJointLocalRestTransformsINS_10GfMatrix4fEEEbPNS_7VtArrayIT_EE(ptr noundef nonnull align 8 dereferenceable(496) %0, ptr noundef %1) local_unnamed_addr #0 align 2 personality ptr @__gxx_personality_v0 {
  %3 = alloca %"class.pxrInternal_v0_24__pxrReserved__::TfCallContext", align 8
  %4 = alloca %"class.pxrInternal_v0_24__pxrReserved__::VtArray.4", align 8
  %.not = icmp eq ptr %1, null
  br i1 %.not, label %5, label %10

5:                                                ; preds = %2
  store ptr @.str.2, ptr %3, align 8
  %6 = getelementptr inbounds nuw i8, ptr %3, i64 8
  store ptr @__func__._ZN32pxrInternal_v0_24__pxrReserved__22UsdSkel_SkelDefinition27GetJointLocalRestTransformsINS_10GfMatrix4dEEEbPNS_7VtArrayIT_EE, ptr %6, align 8
  %7 = getelementptr inbounds nuw i8, ptr %3, i64 16
  store i64 166, ptr %7, align 8
  %8 = getelementptr inbounds nuw i8, ptr %3, i64 24
  store ptr @__PRETTY_FUNCTION__._ZN32pxrInternal_v0_24__pxrReserved__22UsdSkel_SkelDefinition27GetJointLocalRestTransformsINS_10GfMatrix4fEEEbPNS_7VtArrayIT_EE, ptr %8, align 8
  %9 = getelementptr inbounds nuw i8, ptr %3, i64 32
  store i8 0, ptr %9, align 8
  call void (ptr, i32, ptr, ...) @_ZN32pxrInternal_v0_24__pxrReserved__18Tf_PostErrorHelperERKNS_13TfCallContextENS_16TfDiagnosticTypeEPKcz(ptr noundef nonnull align 8 dereferenceable(33) %3, i32 noundef 1, ptr noundef nonnull @.str.6)
  br label %20

10:                                               ; preds = %2
  call void @_ZN32pxrInternal_v0_24__pxrReserved__7VtArrayINS_10GfMatrix4dEEC1Ev(ptr noundef nonnull align 8 dereferenceable(40) %4)
  %11 = getelementptr inbounds nuw i8, ptr %0, i64 448
  %12 = load atomic i32, ptr %11 seq_cst, align 8
  %13 = and i32 %12, 2
  %.not.i = icmp ne i32 %13, 0
  br i1 %.not.i, label %14, label %_ZN32pxrInternal_v0_24__pxrReserved__22UsdSkel_SkelDefinition27GetJointLocalRestTransformsINS_10GfMatrix4dEEEbPNS_7VtArrayIT_EE.exit

14:                                               ; preds = %10
  %15 = getelementptr inbounds nuw i8, ptr %0, i64 128
  %16 = invoke noundef nonnull align 8 dereferenceable(40) ptr @_ZN32pxrInternal_v0_24__pxrReserved__7VtArrayINS_10GfMatrix4dEEaSERKS2_(ptr noundef nonnull align 8 dereferenceable(40) %4, ptr noundef nonnull align 8 dereferenceable(40) %15)
          to label %17 unwind label %18

17:                                               ; preds = %14
  invoke fastcc void @_ZN32pxrInternal_v0_24__pxrReserved__12_GLOBAL__N_120_Convert4dXformsTo4fERKNS_7VtArrayINS_10GfMatrix4dEEEPNS1_INS_10GfMatrix4fEEE(ptr noundef nonnull align 8 dereferenceable(40) %4, ptr noundef nonnull %1)
          to label %_ZN32pxrInternal_v0_24__pxrReserved__22UsdSkel_SkelDefinition27GetJointLocalRestTransformsINS_10GfMatrix4dEEEbPNS_7VtArrayIT_EE.exit unwind label %18

18:                                               ; preds = %14, %17
  %19 = landingpad { ptr, i32 }
          cleanup
  call void @_ZN32pxrInternal_v0_24__pxrReserved__7VtArrayINS_10GfMatrix4dEED1Ev(ptr noundef nonnull align 8 dereferenceable(40) %4) #17
  resume { ptr, i32 } %19

_ZN32pxrInternal_v0_24__pxrReserved__22UsdSkel_SkelDefinition27GetJointLocalRestTransformsINS_10GfMatrix4dEEEbPNS_7VtArrayIT_EE.exit: ; preds = %10, %17
  call void @_ZN32pxrInternal_v0_24__pxrReserved__7VtArrayINS_10GfMatrix4dEED1Ev(ptr noundef nonnull align 8 dereferenceable(40) %4) #17
  br label %20

20:                                               ; preds = %_ZN32pxrInternal_v0_24__pxrReserved__22UsdSkel_SkelDefinition27GetJointLocalRestTransformsINS_10GfMatrix4dEEEbPNS_7VtArrayIT_EE.exit, %5
  %.0 = phi i1 [ %.not.i, %_ZN32pxrInternal_v0_24__pxrReserved__22UsdSkel_SkelDefinition27GetJointLocalRestTransformsINS_10GfMatrix4dEEEbPNS_7VtArrayIT_EE.exit ], [ false, %5 ]
  ret i1 %.0
}